target datalayout = "e-m:e-p270:32:32-p271:32:32-p272:64:64-i64:64-i128:128-f80:128-n8:16:32:64-S128"
target triple = "x86_64-pc-linux-gnu"

%struct.bignum_st = type { ptr, i32, i32, i32, i32 }

; Function Attrs: nounwind uwtable
define hidden i64 @BN_mod_word(ptr noundef %0, i64 noundef %1) #0 {
  %3 = alloca i64, align 8
  %4 = alloca ptr, align 8
  %5 = alloca i64, align 8
  %6 = alloca i128, align 16
  %7 = alloca i32, align 4
  %8 = alloca i32, align 4
  store ptr %0, ptr %4, align 8, !tbaa !6
  store i64 %1, ptr %5, align 8, !tbaa !19
  call void @llvm.lifetime.start.p0(i64 16, ptr %6) #4
  store i128 0, ptr %6, align 16, !tbaa !27
  call void @llvm.lifetime.start.p0(i64 4, ptr %7) #4
  %9 = load i64, ptr %5, align 8, !tbaa !19
  %10 = icmp eq i64 %9, 0
  br i1 %10, label %11, label %12

11:                                               ; preds = %2
  store i64 -1, ptr %3, align 8
  store i32 1, ptr %8, align 4
  br label %43

12:                                               ; preds = %2
  %13 = load i64, ptr %5, align 8, !tbaa !19
  %14 = and i64 %13, -1
  store i64 %14, ptr %5, align 8, !tbaa !19
  %15 = load ptr, ptr %4, align 8, !tbaa !6
  %16 = getelementptr inbounds nuw %struct.bignum_st, ptr %15, i32 0, i32 1
  %17 = load i32, ptr %16, align 8, !tbaa !15
  %18 = sub nsw i32 %17, 1
  store i32 %18, ptr %7, align 4, !tbaa !13
  br label %19

19:                                               ; preds = %37, %12
  %20 = load i32, ptr %7, align 4, !tbaa !13
  %21 = icmp sge i32 %20, 0
  br i1 %21, label %22, label %40

22:                                               ; preds = %19
  %23 = load i128, ptr %6, align 16, !tbaa !27
  %24 = shl i128 %23, 64
  %25 = load ptr, ptr %4, align 8, !tbaa !6
  %26 = getelementptr inbounds nuw %struct.bignum_st, ptr %25, i32 0, i32 0
  %27 = load ptr, ptr %26, align 8, !tbaa !18
  %28 = load i32, ptr %7, align 4, !tbaa !13
  %29 = sext i32 %28 to i64
  %30 = getelementptr inbounds i64, ptr %27, i64 %29
  %31 = load i64, ptr %30, align 8, !tbaa !19
  %32 = zext i64 %31 to i128
  %33 = or i128 %24, %32
  %34 = load i64, ptr %5, align 8, !tbaa !19
  %35 = zext i64 %34 to i128
  %36 = urem i128 %33, %35
  store i128 %36, ptr %6, align 16, !tbaa !27
  br label %37

37:                                               ; preds = %22
  %38 = load i32, ptr %7, align 4, !tbaa !13
  %39 = add nsw i32 %38, -1
  store i32 %39, ptr %7, align 4, !tbaa !13
  br label %19, !llvm.loop !33

40:                                               ; preds = %19
  %41 = load i128, ptr %6, align 16, !tbaa !27
  %42 = trunc i128 %41 to i64
  store i64 %42, ptr %3, align 8
  store i32 1, ptr %8, align 4
  br label %43

43:                                               ; preds = %40, %11
  call void @llvm.lifetime.end.p0(i64 4, ptr %7) #4
  call void @llvm.lifetime.end.p0(i64 16, ptr %6) #4
  %44 = load i64, ptr %3, align 8
  ret i64 %44
}