; Function Attrs: nofree norecurse nosync nounwind memory(read, inaccessiblemem: none) uwtable
define hidden i64 @BN_mod_word(ptr noundef readonly captures(none) %0, i64 noundef %1) local_unnamed_addr #3 {
  %3 = icmp eq i64 %1, 0
  br i1 %3, label %._crit_edge, label %4

4:                                                ; preds = %2
  %5 = getelementptr inbounds nuw i8, ptr %0, i64 8
  %6 = load i32, ptr %5, align 8, !tbaa !6
  %7 = icmp sgt i32 %6, 0
  br i1 %7, label %.lr.ph, label %._crit_edge

.lr.ph:                                           ; preds = %4
  %8 = load ptr, ptr %0, align 8, !tbaa !13
  %9 = zext i64 %1 to i128
  %10 = zext nneg i32 %6 to i64
  br label %11

11:                                               ; preds = %.lr.ph, %11
  %indvars.iv = phi i64 [ %10, %.lr.ph ], [ %indvars.iv.next, %11 ]
  %.01013 = phi i128 [ 0, %.lr.ph ], [ %17, %11 ]
  %indvars.iv.next = add nsw i64 %indvars.iv, -1
  %12 = shl nuw i128 %.01013, 64
  %13 = getelementptr inbounds nuw i64, ptr %8, i64 %indvars.iv.next
  %14 = load i64, ptr %13, align 8, !tbaa !14
  %15 = zext i64 %14 to i128
  %16 = or disjoint i128 %12, %15
  %17 = urem i128 %16, %9
  %18 = icmp samesign ugt i64 %indvars.iv, 1
  br i1 %18, label %11, label %._crit_edge.loopexit, !llvm.loop !24

._crit_edge.loopexit:                             ; preds = %11
  %extract.t = trunc nuw i128 %17 to i64
  br label %._crit_edge

._crit_edge:                                      ; preds = %4, %._crit_edge.loopexit, %2
  %.011 = phi i64 [ -1, %2 ], [ 0, %4 ], [ %extract.t, %._crit_edge.loopexit ]
  ret i64 %.011
}